target datalayout = "e-m:e-p270:32:32-p271:32:32-p272:64:64-i64:64-i128:128-f80:128-n8:16:32:64-S128"
target triple = "x86_64-unknown-linux-gnu"

%"class.std::basic_string_view" = type { i64, ptr }
%"class.std::__cxx11::basic_string" = type { %"struct.std::__cxx11::basic_string<char>::_Alloc_hider", i64, %union.anon }
%"struct.std::__cxx11::basic_string<char>::_Alloc_hider" = type { ptr }
%union.anon = type { i64, [8 x i8] }
%"class.absl::lts_20230802::AlphaNum" = type { %"class.std::basic_string_view", [32 x i8] }
%"class.google::protobuf::Descriptor" = type { %"class.google::protobuf::internal::SymbolBase", i8, i16, i32, ptr, ptr, ptr, ptr, ptr, ptr, ptr, ptr, ptr, ptr, ptr, ptr, ptr, ptr, i32, i32, i32, i32, i32, i32, i32, i32 }
%"class.google::protobuf::internal::SymbolBase" = type { i8 }
%"class.google::protobuf::Message" = type { %"class.google::protobuf::MessageLite" }
%"class.google::protobuf::MessageLite" = type { ptr, %"class.google::protobuf::internal::InternalMetadata" }
%"class.google::protobuf::internal::InternalMetadata" = type { i64 }
%"class.google::protobuf::internal::HasBits" = type { [1 x i32] }
%"class.google::protobuf::internal::CachedSize" = type { i32 }
%"class.google::protobuf::internal::RepeatedPtrFieldBase" = type { ptr, i32, i32, ptr }
%"class.google::protobuf::MessageOptions" = type { %"class.google::protobuf::Message", %union.anon.39 }
%union.anon.39 = type { %"struct.google::protobuf::MessageOptions::Impl_" }
%"struct.google::protobuf::MessageOptions::Impl_" = type <{ %"class.google::protobuf::internal::ExtensionSet", %"class.google::protobuf::internal::HasBits", %"class.google::protobuf::internal::CachedSize", %"class.google::protobuf::RepeatedPtrField", ptr, i8, i8, i8, i8, i8, [3 x i8] }>
%"class.google::protobuf::internal::ExtensionSet" = type { ptr, i16, i16, %"union.google::protobuf::internal::ExtensionSet::AllocatedData" }
%"union.google::protobuf::internal::ExtensionSet::AllocatedData" = type { ptr }
%"class.google::protobuf::RepeatedPtrField" = type { %"class.google::protobuf::internal::RepeatedPtrFieldBase" }

@.str.32 = private unnamed_addr constant [2 x i8] c"_\00", align 1
@.str.33 = private unnamed_addr constant [10 x i8] c"_DoNotUse\00", align 1

; Function Attrs: noreturn nounwind uwtable
define linkonce_odr hidden void @__clang_call_terminate(ptr noundef %0) #13 comdat {
  %2 = call ptr @__cxa_begin_catch(ptr %0) #3
  call void @_ZSt9terminatev() #23
  unreachable
}

; Function Attrs: mustprogress nounwind uwtable
define linkonce_odr hidden noundef i64 @_ZNSt11char_traitsIcE6lengthEPKc(ptr noundef %__s) #5 comdat align 2 {
entry:
  %__s.addr = alloca ptr, align 8
  store ptr %__s, ptr %__s.addr, align 8
  %0 = load ptr, ptr %__s.addr, align 8
  %call = call i64 @strlen(ptr noundef %0) #3
  ret i64 %call
}

; Function Attrs: mustprogress nounwind uwtable
define linkonce_odr hidden noundef zeroext i1 @_ZNK6google8protobuf14MessageOptions19_internal_map_entryEv(ptr noundef nonnull align 8 dereferenceable(88) %this) #5 comdat align 2 {
entry:
  %this.addr = alloca ptr, align 8
  store ptr %this, ptr %this.addr, align 8
  %this1 = load ptr, ptr %this.addr, align 8
  %0 = getelementptr inbounds %"class.google::protobuf::MessageOptions", ptr %this1, i32 0, i32 1
  %map_entry_ = getelementptr inbounds %"struct.google::protobuf::MessageOptions::Impl_", ptr %0, i32 0, i32 8
  %1 = load i8, ptr %map_entry_, align 1
  %tobool = trunc i8 %1 to i1
  ret i1 %tobool
}

; Function Attrs: mustprogress nounwind uwtable
define linkonce_odr hidden void @_ZNSt17basic_string_viewIcSt11char_traitsIcEEC2Ev(ptr noundef nonnull align 8 dereferenceable(16) %this) unnamed_addr #5 comdat align 2 {
entry:
  %this.addr = alloca ptr, align 8
  store ptr %this, ptr %this.addr, align 8
  %this1 = load ptr, ptr %this.addr, align 8
  %_M_len = getelementptr inbounds %"class.std::basic_string_view", ptr %this1, i32 0, i32 0
  store i64 0, ptr %_M_len, align 8
  %_M_str = getelementptr inbounds %"class.std::basic_string_view", ptr %this1, i32 0, i32 1
  store ptr null, ptr %_M_str, align 8
  ret void
}

; Function Attrs: mustprogress nounwind uwtable
define linkonce_odr hidden void @_ZNSt17basic_string_viewIcSt11char_traitsIcEEC2EPKc(ptr noundef nonnull align 8 dereferenceable(16) %this, ptr noundef nonnull %__str) unnamed_addr #5 comdat align 2 personality ptr @__gxx_personality_v0 {
entry:
  %this.addr = alloca ptr, align 8
  %__str.addr = alloca ptr, align 8
  store ptr %this, ptr %this.addr, align 8
  store ptr %__str, ptr %__str.addr, align 8
  %this1 = load ptr, ptr %this.addr, align 8
  %_M_len = getelementptr inbounds %"class.std::basic_string_view", ptr %this1, i32 0, i32 0
  %0 = load ptr, ptr %__str.addr, align 8
  %call = invoke noundef i64 @_ZNSt11char_traitsIcE6lengthEPKc(ptr noundef %0)
          to label %invoke.cont unwind label %terminate.lpad

invoke.cont:                                      ; preds = %entry
  store i64 %call, ptr %_M_len, align 8
  %_M_str = getelementptr inbounds %"class.std::basic_string_view", ptr %this1, i32 0, i32 1
  %1 = load ptr, ptr %__str.addr, align 8
  store ptr %1, ptr %_M_str, align 8
  ret void

terminate.lpad:                                   ; preds = %entry
  %2 = landingpad { ptr, i32 }
          catch ptr null
  %3 = extractvalue { ptr, i32 } %2, 0
  call void @__clang_call_terminate(ptr %3) #23
  unreachable
}

; Function Attrs: mustprogress uwtable
define linkonce_odr hidden noundef zeroext i1 @_ZNK6google8protobuf14MessageOptions9map_entryEv(ptr noundef nonnull align 8 dereferenceable(88) %this) #4 comdat align 2 {
entry:
  %this.addr = alloca ptr, align 8
  store ptr %this, ptr %this.addr, align 8
  %this1 = load ptr, ptr %this.addr, align 8
  %call = call noundef zeroext i1 @_ZNK6google8protobuf14MessageOptions19_internal_map_entryEv(ptr noundef nonnull align 8 dereferenceable(88) %this1)
  ret i1 %call
}

; Function Attrs: mustprogress nounwind uwtable
define linkonce_odr hidden noundef nonnull align 8 dereferenceable(88) ptr @_ZNK6google8protobuf10Descriptor7optionsEv(ptr noundef nonnull align 8 dereferenceable(152) %this) #5 comdat align 2 {
entry:
  %this.addr = alloca ptr, align 8
  store ptr %this, ptr %this.addr, align 8
  %this1 = load ptr, ptr %this.addr, align 8
  %options_ = getelementptr inbounds %"class.google::protobuf::Descriptor", ptr %this1, i32 0, i32 7
  %0 = load ptr, ptr %options_, align 8
  ret ptr %0
}

; Function Attrs: mustprogress nounwind uwtable
define linkonce_odr hidden { i64, ptr } @_ZN4absl12lts_2023080218NullSafeStringViewEPKc(ptr noundef %p) #5 comdat {
entry:
  %retval = alloca %"class.std::basic_string_view", align 8
  %p.addr = alloca ptr, align 8
  store ptr %p, ptr %p.addr, align 8
  %0 = load ptr, ptr %p.addr, align 8
  %tobool = icmp ne ptr %0, null
  br i1 %tobool, label %cond.true, label %cond.false

cond.true:                                        ; preds = %entry
  %1 = load ptr, ptr %p.addr, align 8
  call void @_ZNSt17basic_string_viewIcSt11char_traitsIcEEC2EPKc(ptr noundef nonnull align 8 dereferenceable(16) %retval, ptr noundef %1) #3
  br label %cond.end

cond.false:                                       ; preds = %entry
  call void @_ZNSt17basic_string_viewIcSt11char_traitsIcEEC2Ev(ptr noundef nonnull align 8 dereferenceable(16) %retval) #3
  br label %cond.end

cond.end:                                         ; preds = %cond.false, %cond.true
  %2 = load { i64, ptr }, ptr %retval, align 8
  ret { i64, ptr } %2
}

; Function Attrs: mustprogress uwtable
define linkonce_odr hidden noundef zeroext i1 @_ZN6google8protobuf8compiler3cpp17IsMapEntryMessageEPKNS0_10DescriptorE(ptr noundef %descriptor) #4 comdat {
entry:
  %descriptor.addr = alloca ptr, align 8
  store ptr %descriptor, ptr %descriptor.addr, align 8
  %0 = load ptr, ptr %descriptor.addr, align 8
  %call = call noundef nonnull align 8 dereferenceable(88) ptr @_ZNK6google8protobuf10Descriptor7optionsEv(ptr noundef nonnull align 8 dereferenceable(152) %0)
  %call1 = call noundef zeroext i1 @_ZNK6google8protobuf14MessageOptions9map_entryEv(ptr noundef nonnull align 8 dereferenceable(88) %call)
  ret i1 %call1
}

; Function Attrs: mustprogress nounwind uwtable
define linkonce_odr hidden noundef nonnull align 8 dereferenceable(32) ptr @_ZNK6google8protobuf10Descriptor4nameB5cxx11Ev(ptr noundef nonnull align 8 dereferenceable(152) %this) #5 comdat align 2 {
entry:
  %this.addr = alloca ptr, align 8
  store ptr %this, ptr %this.addr, align 8
  %this1 = load ptr, ptr %this.addr, align 8
  %all_names_ = getelementptr inbounds %"class.google::protobuf::Descriptor", ptr %this1, i32 0, i32 4
  %0 = load ptr, ptr %all_names_, align 8
  %arrayidx = getelementptr inbounds %"class.std::__cxx11::basic_string", ptr %0, i64 0
  ret ptr %arrayidx
}

; Function Attrs: mustprogress uwtable
define linkonce_odr hidden void @_ZN4absl12lts_202308028AlphaNumC2EPKc(ptr noundef nonnull align 8 dereferenceable(48) %this, ptr noundef %c_str) unnamed_addr #4 comdat align 2 {
entry:
  %this.addr = alloca ptr, align 8
  %c_str.addr = alloca ptr, align 8
  store ptr %this, ptr %this.addr, align 8
  store ptr %c_str, ptr %c_str.addr, align 8
  %this1 = load ptr, ptr %this.addr, align 8
  %piece_ = getelementptr inbounds %"class.absl::lts_20230802::AlphaNum", ptr %this1, i32 0, i32 0
  %0 = load ptr, ptr %c_str.addr, align 8
  %call = call { i64, ptr } @_ZN4absl12lts_2023080218NullSafeStringViewEPKc(ptr noundef %0)
  %1 = getelementptr inbounds { i64, ptr }, ptr %piece_, i32 0, i32 0
  %2 = extractvalue { i64, ptr } %call, 0
  store i64 %2, ptr %1, align 8
  %3 = getelementptr inbounds { i64, ptr }, ptr %piece_, i32 0, i32 1
  %4 = extractvalue { i64, ptr } %call, 1
  store ptr %4, ptr %3, align 8
  ret void
}

; Function Attrs: mustprogress nounwind uwtable
define linkonce_odr hidden void @_ZN4absl12lts_202308028AlphaNumC2ISaIcEEERKNSt7__cxx1112basic_stringIcSt11char_traitsIcET_EE(ptr noundef nonnull align 8 dereferenceable(48) %this, ptr noundef nonnull align 8 dereferenceable(32) %str) unnamed_addr #5 comdat align 2 {
entry:
  %this.addr = alloca ptr, align 8
  %str.addr = alloca ptr, align 8
  store ptr %this, ptr %this.addr, align 8
  store ptr %str, ptr %str.addr, align 8
  %this1 = load ptr, ptr %this.addr, align 8
  %piece_ = getelementptr inbounds %"class.absl::lts_20230802::AlphaNum", ptr %this1, i32 0, i32 0
  %0 = load ptr, ptr %str.addr, align 8
  %call = call { i64, ptr } @_ZNKSt7__cxx1112basic_stringIcSt11char_traitsIcESaIcEEcvSt17basic_string_viewIcS2_EEv(ptr noundef nonnull align 8 dereferenceable(32) %0) #3
  %1 = getelementptr inbounds { i64, ptr }, ptr %piece_, i32 0, i32 0
  %2 = extractvalue { i64, ptr } %call, 0
  store i64 %2, ptr %1, align 8
  %3 = getelementptr inbounds { i64, ptr }, ptr %piece_, i32 0, i32 1
  %4 = extractvalue { i64, ptr } %call, 1
  store ptr %4, ptr %3, align 8
  ret void
}

; Function Attrs: mustprogress nounwind uwtable
define linkonce_odr hidden noundef ptr @_ZNK6google8protobuf10Descriptor15containing_typeEv(ptr noundef nonnull align 8 dereferenceable(152) %this) #5 comdat align 2 {
entry:
  %this.addr = alloca ptr, align 8
  store ptr %this, ptr %this.addr, align 8
  %this1 = load ptr, ptr %this.addr, align 8
  %containing_type_ = getelementptr inbounds %"class.google::protobuf::Descriptor", ptr %this1, i32 0, i32 6
  %0 = load ptr, ptr %containing_type_, align 8
  ret ptr %0
}

; Function Attrs: mustprogress uwtable
define void @_ZN6google8protobuf8compiler3cpp9ClassNameB5cxx11EPKNS0_10DescriptorE(ptr noalias sret(%"class.std::__cxx11::basic_string") align 8 %agg.result, ptr noundef %descriptor) #4 personality ptr @__gxx_personality_v0 {
entry:
  %result.ptr = alloca ptr, align 8
  %descriptor.addr = alloca ptr, align 8
  %parent = alloca ptr, align 8
  %res = alloca %"class.std::__cxx11::basic_string", align 8
  %ref.tmp = alloca %"class.absl::lts_20230802::AlphaNum", align 8
  %ref.tmp1 = alloca %"class.std::__cxx11::basic_string", align 8
  %exn.slot = alloca ptr, align 8
  %ehselector.slot = alloca i32, align 4
  %ref.tmp4 = alloca %"class.absl::lts_20230802::AlphaNum", align 8
  %ref.tmp7 = alloca %"class.absl::lts_20230802::AlphaNum", align 8
  %ref.tmp15 = alloca %"class.absl::lts_20230802::AlphaNum", align 8
  %agg.tmp = alloca %"class.std::basic_string_view", align 8
  store ptr %agg.result, ptr %result.ptr, align 8
  store ptr %descriptor, ptr %descriptor.addr, align 8
  %0 = load ptr, ptr %descriptor.addr, align 8
  %call = call noundef ptr @_ZNK6google8protobuf10Descriptor15containing_typeEv(ptr noundef nonnull align 8 dereferenceable(152) %0)
  store ptr %call, ptr %parent, align 8
  call void @_ZNSt7__cxx1112basic_stringIcSt11char_traitsIcESaIcEEC1Ev(ptr noundef nonnull align 8 dereferenceable(32) %res) #3
  %1 = load ptr, ptr %parent, align 8
  %tobool = icmp ne ptr %1, null
  br i1 %tobool, label %if.then, label %if.end

if.then:                                          ; preds = %entry
  %2 = load ptr, ptr %parent, align 8
  invoke void @_ZN6google8protobuf8compiler3cpp9ClassNameB5cxx11EPKNS0_10DescriptorE(ptr sret(%"class.std::__cxx11::basic_string") align 8 %ref.tmp1, ptr noundef %2)
          to label %invoke.cont unwind label %lpad

invoke.cont:                                      ; preds = %if.then
  invoke void @_ZN4absl12lts_202308028AlphaNumC2ISaIcEEERKNSt7__cxx1112basic_stringIcSt11char_traitsIcET_EE(ptr noundef nonnull align 8 dereferenceable(48) %ref.tmp, ptr noundef nonnull align 8 dereferenceable(32) %ref.tmp1)
          to label %invoke.cont3 unwind label %lpad2

invoke.cont3:                                     ; preds = %invoke.cont
  invoke void @_ZN4absl12lts_202308028AlphaNumC2EPKc(ptr noundef nonnull align 8 dereferenceable(48) %ref.tmp4, ptr noundef @.str.32)
          to label %invoke.cont5 unwind label %lpad2

invoke.cont5:                                     ; preds = %invoke.cont3
  invoke void @_ZN4absl12lts_202308029StrAppendEPNSt7__cxx1112basic_stringIcSt11char_traitsIcESaIcEEERKNS0_8AlphaNumESA_(ptr noundef %res, ptr noundef nonnull align 8 dereferenceable(48) %ref.tmp, ptr noundef nonnull align 8 dereferenceable(48) %ref.tmp4)
          to label %invoke.cont6 unwind label %lpad2

invoke.cont6:                                     ; preds = %invoke.cont5
  call void @_ZNSt7__cxx1112basic_stringIcSt11char_traitsIcESaIcEED1Ev(ptr noundef nonnull align 8 dereferenceable(32) %ref.tmp1) #3
  br label %if.end

lpad:                                             ; preds = %if.end18, %invoke.cont16, %if.then14, %invoke.cont11, %invoke.cont10, %invoke.cont8, %if.end, %if.then
  %3 = landingpad { ptr, i32 }
          cleanup
  %4 = extractvalue { ptr, i32 } %3, 0
  store ptr %4, ptr %exn.slot, align 8
  %5 = extractvalue { ptr, i32 } %3, 1
  store i32 %5, ptr %ehselector.slot, align 4
  br label %ehcleanup

lpad2:                                            ; preds = %invoke.cont5, %invoke.cont3, %invoke.cont
  %6 = landingpad { ptr, i32 }
          cleanup
  %7 = extractvalue { ptr, i32 } %6, 0
  store ptr %7, ptr %exn.slot, align 8
  %8 = extractvalue { ptr, i32 } %6, 1
  store i32 %8, ptr %ehselector.slot, align 4
  call void @_ZNSt7__cxx1112basic_stringIcSt11char_traitsIcESaIcEED1Ev(ptr noundef nonnull align 8 dereferenceable(32) %ref.tmp1) #3
  br label %ehcleanup

if.end:                                           ; preds = %invoke.cont6, %entry
  %9 = load ptr, ptr %descriptor.addr, align 8
  %call9 = invoke noundef nonnull align 8 dereferenceable(32) ptr @_ZNK6google8protobuf10Descriptor4nameB5cxx11Ev(ptr noundef nonnull align 8 dereferenceable(152) %9)
          to label %invoke.cont8 unwind label %lpad

invoke.cont8:                                     ; preds = %if.end
  invoke void @_ZN4absl12lts_202308028AlphaNumC2ISaIcEEERKNSt7__cxx1112basic_stringIcSt11char_traitsIcET_EE(ptr noundef nonnull align 8 dereferenceable(48) %ref.tmp7, ptr noundef nonnull align 8 dereferenceable(32) %call9)
          to label %invoke.cont10 unwind label %lpad

invoke.cont10:                                    ; preds = %invoke.cont8
  invoke void @_ZN4absl12lts_202308029StrAppendEPNSt7__cxx1112basic_stringIcSt11char_traitsIcESaIcEEERKNS0_8AlphaNumE(ptr noundef %res, ptr noundef nonnull align 8 dereferenceable(48) %ref.tmp7)
          to label %invoke.cont11 unwind label %lpad

invoke.cont11:                                    ; preds = %invoke.cont10
  %10 = load ptr, ptr %descriptor.addr, align 8
  %call13 = invoke noundef zeroext i1 @_ZN6google8protobuf8compiler3cpp17IsMapEntryMessageEPKNS0_10DescriptorE(ptr noundef %10)
          to label %invoke.cont12 unwind label %lpad

invoke.cont12:                                    ; preds = %invoke.cont11
  br i1 %call13, label %if.then14, label %if.end18

if.then14:                                        ; preds = %invoke.cont12
  invoke void @_ZN4absl12lts_202308028AlphaNumC2EPKc(ptr noundef nonnull align 8 dereferenceable(48) %ref.tmp15, ptr noundef @.str.33)
          to label %invoke.cont16 unwind label %lpad

invoke.cont16:                                    ; preds = %if.then14
  invoke void @_ZN4absl12lts_202308029StrAppendEPNSt7__cxx1112basic_stringIcSt11char_traitsIcESaIcEEERKNS0_8AlphaNumE(ptr noundef %res, ptr noundef nonnull align 8 dereferenceable(48) %ref.tmp15)
          to label %invoke.cont17 unwind label %lpad

invoke.cont17:                                    ; preds = %invoke.cont16
  br label %if.end18

if.end18:                                         ; preds = %invoke.cont17, %invoke.cont12
  %call19 = call { i64, ptr } @_ZNKSt7__cxx1112basic_stringIcSt11char_traitsIcESaIcEEcvSt17basic_string_viewIcS2_EEv(ptr noundef nonnull align 8 dereferenceable(32) %res) #3
  %11 = getelementptr inbounds { i64, ptr }, ptr %agg.tmp, i32 0, i32 0
  %12 = extractvalue { i64, ptr } %call19, 0
  store i64 %12, ptr %11, align 8
  %13 = getelementptr inbounds { i64, ptr }, ptr %agg.tmp, i32 0, i32 1
  %14 = extractvalue { i64, ptr } %call19, 1
  store ptr %14, ptr %13, align 8
  %15 = getelementptr inbounds { i64, ptr }, ptr %agg.tmp, i32 0, i32 0
  %16 = load i64, ptr %15, align 8
  %17 = getelementptr inbounds { i64, ptr }, ptr %agg.tmp, i32 0, i32 1
  %18 = load ptr, ptr %17, align 8
  invoke void @_ZN6google8protobuf8compiler3cpp14ResolveKeywordB5cxx11ESt17basic_string_viewIcSt11char_traitsIcEE(ptr sret(%"class.std::__cxx11::basic_string") align 8 %agg.result, i64 %16, ptr %18)
          to label %invoke.cont20 unwind label %lpad

invoke.cont20:                                    ; preds = %if.end18
  call void @_ZNSt7__cxx1112basic_stringIcSt11char_traitsIcESaIcEED1Ev(ptr noundef nonnull align 8 dereferenceable(32) %res) #3
  ret void

ehcleanup:                                        ; preds = %lpad2, %lpad
  call void @_ZNSt7__cxx1112basic_stringIcSt11char_traitsIcESaIcEED1Ev(ptr noundef nonnull align 8 dereferenceable(32) %res) #3
  br label %eh.resume

eh.resume:                                        ; preds = %ehcleanup
  %exn = load ptr, ptr %exn.slot, align 8
  %sel = load i32, ptr %ehselector.slot, align 4
  %lpad.val = insertvalue { ptr, i32 } poison, ptr %exn, 0
  %lpad.val21 = insertvalue { ptr, i32 } %lpad.val, i32 %sel, 1
  resume { ptr, i32 } %lpad.val21
}