; Function Attrs: mustprogress uwtable
define void @_ZN6google8protobuf8compiler3cpp9ClassNameB5cxx11EPKNS0_10DescriptorE(ptr noalias sret(%"class.std::__cxx11::basic_string") align 8 %agg.result, ptr nocapture noundef readonly %descriptor) local_unnamed_addr #4 personality ptr @__gxx_personality_v0 {
entry:
  %res = alloca %"class.std::__cxx11::basic_string", align 8
  %ref.tmp = alloca %"class.absl::lts_20230802::AlphaNum", align 8
  %ref.tmp1 = alloca %"class.std::__cxx11::basic_string", align 8
  %ref.tmp4 = alloca %"class.absl::lts_20230802::AlphaNum", align 8
  %ref.tmp7 = alloca %"class.absl::lts_20230802::AlphaNum", align 8
  %ref.tmp15 = alloca %"class.absl::lts_20230802::AlphaNum", align 8
  %containing_type_.i = getelementptr inbounds i8, ptr %descriptor, i64 24
  %0 = load ptr, ptr %containing_type_.i, align 8
  call void @_ZNSt7__cxx1112basic_stringIcSt11char_traitsIcESaIcEEC1Ev(ptr noundef nonnull align 8 dereferenceable(32) %res) #26
  %tobool.not = icmp eq ptr %0, null
  br i1 %tobool.not, label %if.end, label %if.then

if.then:                                          ; preds = %entry
  invoke void @_ZN6google8protobuf8compiler3cpp9ClassNameB5cxx11EPKNS0_10DescriptorE(ptr nonnull sret(%"class.std::__cxx11::basic_string") align 8 %ref.tmp1, ptr noundef nonnull %0)
          to label %invoke.cont5 unwind label %lpad

invoke.cont5:                                     ; preds = %if.then
  %call.i = call { i64, ptr } @_ZNKSt7__cxx1112basic_stringIcSt11char_traitsIcESaIcEEcvSt17basic_string_viewIcS2_EEv(ptr noundef nonnull align 8 dereferenceable(32) %ref.tmp1) #26
  %1 = extractvalue { i64, ptr } %call.i, 0
  store i64 %1, ptr %ref.tmp, align 8
  %2 = getelementptr inbounds i8, ptr %ref.tmp, i64 8
  %3 = extractvalue { i64, ptr } %call.i, 1
  store ptr %3, ptr %2, align 8
  store i64 1, ptr %ref.tmp4, align 8
  %4 = getelementptr inbounds i8, ptr %ref.tmp4, i64 8
  store ptr @.str.32, ptr %4, align 8
  invoke void @_ZN4absl12lts_202308029StrAppendEPNSt7__cxx1112basic_stringIcSt11char_traitsIcESaIcEEERKNS0_8AlphaNumESA_(ptr noundef nonnull %res, ptr noundef nonnull align 8 dereferenceable(48) %ref.tmp, ptr noundef nonnull align 8 dereferenceable(48) %ref.tmp4)
          to label %invoke.cont6 unwind label %lpad2

invoke.cont6:                                     ; preds = %invoke.cont5
  call void @_ZNSt7__cxx1112basic_stringIcSt11char_traitsIcESaIcEED1Ev(ptr noundef nonnull align 8 dereferenceable(32) %ref.tmp1) #26
  br label %if.end

lpad:                                             ; preds = %if.end18, %invoke.cont16, %if.end, %if.then
  %5 = landingpad { ptr, i32 }
          cleanup
  br label %ehcleanup

lpad2:                                            ; preds = %invoke.cont5
  %6 = landingpad { ptr, i32 }
          cleanup
  call void @_ZNSt7__cxx1112basic_stringIcSt11char_traitsIcESaIcEED1Ev(ptr noundef nonnull align 8 dereferenceable(32) %ref.tmp1) #26
  br label %ehcleanup

if.end:                                           ; preds = %invoke.cont6, %entry
  %all_names_.i = getelementptr inbounds i8, ptr %descriptor, i64 8
  %7 = load ptr, ptr %all_names_.i, align 8
  %call.i5 = call { i64, ptr } @_ZNKSt7__cxx1112basic_stringIcSt11char_traitsIcESaIcEEcvSt17basic_string_viewIcS2_EEv(ptr noundef nonnull align 8 dereferenceable(32) %7) #26
  %8 = extractvalue { i64, ptr } %call.i5, 0
  store i64 %8, ptr %ref.tmp7, align 8
  %9 = getelementptr inbounds i8, ptr %ref.tmp7, i64 8
  %10 = extractvalue { i64, ptr } %call.i5, 1
  store ptr %10, ptr %9, align 8
  invoke void @_ZN4absl12lts_202308029StrAppendEPNSt7__cxx1112basic_stringIcSt11char_traitsIcESaIcEEERKNS0_8AlphaNumE(ptr noundef nonnull %res, ptr noundef nonnull align 8 dereferenceable(48) %ref.tmp7)
          to label %invoke.cont12 unwind label %lpad

invoke.cont12:                                    ; preds = %if.end
  %options_.i.i = getelementptr inbounds i8, ptr %descriptor, i64 32
  %11 = load ptr, ptr %options_.i.i, align 8
  %map_entry_.i.i.i = getelementptr inbounds i8, ptr %11, i64 83
  %12 = load i8, ptr %map_entry_.i.i.i, align 1
  %13 = and i8 %12, 1
  %tobool.i.i.i.not = icmp eq i8 %13, 0
  br i1 %tobool.i.i.i.not, label %if.end18, label %invoke.cont16

invoke.cont16:                                    ; preds = %invoke.cont12
  store i64 9, ptr %ref.tmp15, align 8
  %14 = getelementptr inbounds i8, ptr %ref.tmp15, i64 8
  store ptr @.str.33, ptr %14, align 8
  invoke void @_ZN4absl12lts_202308029StrAppendEPNSt7__cxx1112basic_stringIcSt11char_traitsIcESaIcEEERKNS0_8AlphaNumE(ptr noundef nonnull %res, ptr noundef nonnull align 8 dereferenceable(48) %ref.tmp15)
          to label %if.end18 unwind label %lpad

if.end18:                                         ; preds = %invoke.cont16, %invoke.cont12
  %call19 = call { i64, ptr } @_ZNKSt7__cxx1112basic_stringIcSt11char_traitsIcESaIcEEcvSt17basic_string_viewIcS2_EEv(ptr noundef nonnull align 8 dereferenceable(32) %res) #26
  %15 = extractvalue { i64, ptr } %call19, 0
  %16 = extractvalue { i64, ptr } %call19, 1
  invoke void @_ZN6google8protobuf8compiler3cpp14ResolveKeywordB5cxx11ESt17basic_string_viewIcSt11char_traitsIcEE(ptr sret(%"class.std::__cxx11::basic_string") align 8 %agg.result, i64 %15, ptr %16)
          to label %invoke.cont20 unwind label %lpad

invoke.cont20:                                    ; preds = %if.end18
  call void @_ZNSt7__cxx1112basic_stringIcSt11char_traitsIcESaIcEED1Ev(ptr noundef nonnull align 8 dereferenceable(32) %res) #26
  ret void

ehcleanup:                                        ; preds = %lpad2, %lpad
  %.pn = phi { ptr, i32 } [ %5, %lpad ], [ %6, %lpad2 ]
  call void @_ZNSt7__cxx1112basic_stringIcSt11char_traitsIcESaIcEED1Ev(ptr noundef nonnull align 8 dereferenceable(32) %res) #26
  resume { ptr, i32 } %.pn
}